target datalayout = "e-m:e-p270:32:32-p271:32:32-p272:64:64-i64:64-i128:128-f80:128-n8:16:32:64-S128"
target triple = "x86_64-pc-linux-gnu"

%struct._object = type { %union.anon, ptr }
%union.anon = type { i64 }
%struct.PyDateTime_CAPI = type { ptr, ptr, ptr, ptr, ptr, ptr, ptr, ptr, ptr, ptr, ptr, ptr, ptr, ptr, ptr }

@_Py_NoneStruct = external global %struct._object, align 8
@PyDateTimeAPI = internal global ptr null, align 8
@.str.29 = private unnamed_addr constant [6 x i8] c"piiii\00", align 1

; Function Attrs: nounwind uwtable
define internal ptr @get_time_fromtime(ptr noundef %0, ptr noundef %1) #0 {
  %3 = alloca ptr, align 8
  %4 = alloca ptr, align 8
  %5 = alloca ptr, align 8
  %6 = alloca ptr, align 8
  %7 = alloca i32, align 4
  %8 = alloca i32, align 4
  %9 = alloca i32, align 4
  %10 = alloca i32, align 4
  %11 = alloca i32, align 4
  %12 = alloca i32, align 4
  store ptr %0, ptr %4, align 8, !tbaa !3
  store ptr %1, ptr %5, align 8, !tbaa !3
  call void @llvm.lifetime.start.p0(i64 8, ptr %6) #6
  store ptr null, ptr %6, align 8, !tbaa !3
  call void @llvm.lifetime.start.p0(i64 4, ptr %7) #6
  call void @llvm.lifetime.start.p0(i64 4, ptr %8) #6
  call void @llvm.lifetime.start.p0(i64 4, ptr %9) #6
  call void @llvm.lifetime.start.p0(i64 4, ptr %10) #6
  call void @llvm.lifetime.start.p0(i64 4, ptr %11) #6
  %13 = load ptr, ptr %5, align 8, !tbaa !3
  %14 = call i32 (ptr, ptr, ...) @PyArg_ParseTuple(ptr noundef %13, ptr noundef @.str.29, ptr noundef %7, ptr noundef %8, ptr noundef %9, ptr noundef %10, ptr noundef %11)
  %15 = icmp ne i32 %14, 0
  br i1 %15, label %17, label %16

16:                                               ; preds = %2
  store ptr null, ptr %3, align 8
  store i32 1, ptr %12, align 4
  br label %46

17:                                               ; preds = %2
  %18 = load i32, ptr %7, align 4, !tbaa !9
  %19 = icmp ne i32 %18, 0
  br i1 %19, label %20, label %32

20:                                               ; preds = %17
  %21 = load ptr, ptr @PyDateTimeAPI, align 8, !tbaa !24
  %22 = getelementptr inbounds nuw %struct.PyDateTime_CAPI, ptr %21, i32 0, i32 8
  %23 = load ptr, ptr %22, align 8, !tbaa !37
  %24 = load i32, ptr %8, align 4, !tbaa !9
  %25 = load i32, ptr %9, align 4, !tbaa !9
  %26 = load i32, ptr %10, align 4, !tbaa !9
  %27 = load i32, ptr %11, align 4, !tbaa !9
  %28 = load ptr, ptr @PyDateTimeAPI, align 8, !tbaa !24
  %29 = getelementptr inbounds nuw %struct.PyDateTime_CAPI, ptr %28, i32 0, i32 2
  %30 = load ptr, ptr %29, align 8, !tbaa !29
  %31 = call ptr %23(i32 noundef %24, i32 noundef %25, i32 noundef %26, i32 noundef %27, ptr noundef @_Py_NoneStruct, ptr noundef %30)
  store ptr %31, ptr %6, align 8, !tbaa !3
  br label %44

32:                                               ; preds = %17
  %33 = load ptr, ptr @PyDateTimeAPI, align 8, !tbaa !24
  %34 = getelementptr inbounds nuw %struct.PyDateTime_CAPI, ptr %33, i32 0, i32 8
  %35 = load ptr, ptr %34, align 8, !tbaa !37
  %36 = load i32, ptr %8, align 4, !tbaa !9
  %37 = load i32, ptr %9, align 4, !tbaa !9
  %38 = load i32, ptr %10, align 4, !tbaa !9
  %39 = load i32, ptr %11, align 4, !tbaa !9
  %40 = load ptr, ptr @PyDateTimeAPI, align 8, !tbaa !24
  %41 = getelementptr inbounds nuw %struct.PyDateTime_CAPI, ptr %40, i32 0, i32 2
  %42 = load ptr, ptr %41, align 8, !tbaa !29
  %43 = call ptr %35(i32 noundef %36, i32 noundef %37, i32 noundef %38, i32 noundef %39, ptr noundef @_Py_NoneStruct, ptr noundef %42)
  store ptr %43, ptr %6, align 8, !tbaa !3
  br label %44

44:                                               ; preds = %32, %20
  %45 = load ptr, ptr %6, align 8, !tbaa !3
  store ptr %45, ptr %3, align 8
  store i32 1, ptr %12, align 4
  br label %46

46:                                               ; preds = %44, %16
  call void @llvm.lifetime.end.p0(i64 4, ptr %11) #6
  call void @llvm.lifetime.end.p0(i64 4, ptr %10) #6
  call void @llvm.lifetime.end.p0(i64 4, ptr %9) #6
  call void @llvm.lifetime.end.p0(i64 4, ptr %8) #6
  call void @llvm.lifetime.end.p0(i64 4, ptr %7) #6
  call void @llvm.lifetime.end.p0(i64 8, ptr %6) #6
  %47 = load ptr, ptr %3, align 8
  ret ptr %47
}