; Function Attrs: nounwind uwtable
define internal ptr @get_time_fromtime(ptr readnone captures(none) %0, ptr noundef %1) #0 {
  %3 = alloca i32, align 4
  %4 = alloca i32, align 4
  %5 = alloca i32, align 4
  %6 = alloca i32, align 4
  %7 = alloca i32, align 4
  call void @llvm.lifetime.start.p0(i64 4, ptr nonnull %3) #4
  call void @llvm.lifetime.start.p0(i64 4, ptr nonnull %4) #4
  call void @llvm.lifetime.start.p0(i64 4, ptr nonnull %5) #4
  call void @llvm.lifetime.start.p0(i64 4, ptr nonnull %6) #4
  call void @llvm.lifetime.start.p0(i64 4, ptr nonnull %7) #4
  %8 = call i32 (ptr, ptr, ...) @PyArg_ParseTuple(ptr noundef %1, ptr noundef nonnull @.str.29, ptr noundef nonnull %3, ptr noundef nonnull %4, ptr noundef nonnull %5, ptr noundef nonnull %6, ptr noundef nonnull %7) #4
  %.not = icmp eq i32 %8, 0
  br i1 %.not, label %20, label %9

9:                                                ; preds = %2
  %10 = load ptr, ptr @PyDateTimeAPI, align 8, !tbaa !24
  %11 = getelementptr inbounds nuw i8, ptr %10, i64 64
  %12 = load ptr, ptr %11, align 8, !tbaa !38
  %13 = load i32, ptr %4, align 4, !tbaa !22
  %14 = load i32, ptr %5, align 4, !tbaa !22
  %15 = load i32, ptr %6, align 4, !tbaa !22
  %16 = load i32, ptr %7, align 4, !tbaa !22
  %17 = getelementptr inbounds nuw i8, ptr %10, i64 16
  %18 = load ptr, ptr %17, align 8, !tbaa !30
  %19 = call ptr %12(i32 noundef %13, i32 noundef %14, i32 noundef %15, i32 noundef %16, ptr noundef nonnull @_Py_NoneStruct, ptr noundef %18) #4
  br label %20

20:                                               ; preds = %9, %2
  %.03 = phi ptr [ null, %2 ], [ %19, %9 ]
  call void @llvm.lifetime.end.p0(i64 4, ptr nonnull %7) #4
  call void @llvm.lifetime.end.p0(i64 4, ptr nonnull %6) #4
  call void @llvm.lifetime.end.p0(i64 4, ptr nonnull %5) #4
  call void @llvm.lifetime.end.p0(i64 4, ptr nonnull %4) #4
  call void @llvm.lifetime.end.p0(i64 4, ptr nonnull %3) #4
  ret ptr %.03
}